target datalayout = "e-m:e-p270:32:32-p271:32:32-p272:64:64-i64:64-i128:128-f80:128-n8:16:32:64-S128"
target triple = "x86_64-pc-linux-gnu"

%struct.lean_object = type { i32, i32 }
%struct.lean_ctor_object = type { %struct.lean_object, [0 x ptr] }

; Function Attrs: inlinehint nounwind uwtable
define internal ptr @lean_to_ctor(ptr noundef %0) #0 {
  %2 = alloca ptr, align 8
  store ptr %0, ptr %2, align 8, !tbaa !8
  %3 = load ptr, ptr %2, align 8, !tbaa !8
  ret ptr %3
}

; Function Attrs: inlinehint nounwind uwtable
define internal ptr @lean_ctor_obj_cptr(ptr noundef %0) #0 {
  %2 = alloca ptr, align 8
  store ptr %0, ptr %2, align 8, !tbaa !8
  %3 = load ptr, ptr %2, align 8, !tbaa !8
  %4 = call ptr @lean_to_ctor(ptr noundef %3)
  %5 = getelementptr inbounds nuw %struct.lean_ctor_object, ptr %4, i32 0, i32 1
  %6 = getelementptr inbounds [0 x ptr], ptr %5, i64 0, i64 0
  ret ptr %6
}

; Function Attrs: alwaysinline nounwind uwtable
define internal void @lean_dec_ref(ptr noundef %0) #1 {
  %2 = alloca ptr, align 8
  store ptr %0, ptr %2, align 8, !tbaa !8
  %3 = load ptr, ptr %2, align 8, !tbaa !8
  %4 = getelementptr inbounds nuw %struct.lean_object, ptr %3, i32 0, i32 0
  %5 = load i32, ptr %4, align 4, !tbaa !15
  %6 = icmp sgt i32 %5, 1
  %7 = zext i1 %6 to i32
  %8 = sext i32 %7 to i64
  %9 = call i64 @llvm.expect.i64(i64 %8, i64 1)
  %10 = icmp ne i64 %9, 0
  br i1 %10, label %11, label %16

11:                                               ; preds = %1
  %12 = load ptr, ptr %2, align 8, !tbaa !8
  %13 = getelementptr inbounds nuw %struct.lean_object, ptr %12, i32 0, i32 0
  %14 = load i32, ptr %13, align 4, !tbaa !15
  %15 = add i32 %14, -1
  store i32 %15, ptr %13, align 4, !tbaa !15
  br label %24

16:                                               ; preds = %1
  %17 = load ptr, ptr %2, align 8, !tbaa !8
  %18 = getelementptr inbounds nuw %struct.lean_object, ptr %17, i32 0, i32 0
  %19 = load i32, ptr %18, align 4, !tbaa !15
  %20 = icmp ne i32 %19, 0
  br i1 %20, label %21, label %23

21:                                               ; preds = %16
  %22 = load ptr, ptr %2, align 8, !tbaa !8
  call void @lean_dec_ref_cold(ptr noundef %22)
  br label %23

23:                                               ; preds = %21, %16
  br label %24

24:                                               ; preds = %23, %11
  ret void
}

; Function Attrs: alwaysinline nounwind uwtable
define internal zeroext i1 @lean_is_scalar(ptr noundef %0) #1 {
  %2 = alloca ptr, align 8
  store ptr %0, ptr %2, align 8, !tbaa !8
  %3 = load ptr, ptr %2, align 8, !tbaa !8
  %4 = ptrtoint ptr %3 to i64
  %5 = and i64 %4, 1
  %6 = icmp eq i64 %5, 1
  ret i1 %6
}

; Function Attrs: inlinehint nounwind uwtable
define internal ptr @lean_box(i64 noundef %0) #0 {
  %2 = alloca i64, align 8
  store i64 %0, ptr %2, align 8, !tbaa !4
  %3 = load i64, ptr %2, align 8, !tbaa !4
  %4 = shl i64 %3, 1
  %5 = or i64 %4, 1
  %6 = inttoptr i64 %5 to ptr
  ret ptr %6
}

; Function Attrs: inlinehint nounwind uwtable
define internal void @lean_ctor_set(ptr noundef %0, i32 noundef %1, ptr noundef %2) #0 {
  %4 = alloca ptr, align 8
  %5 = alloca i32, align 4
  %6 = alloca ptr, align 8
  store ptr %0, ptr %4, align 8, !tbaa !8
  store i32 %1, ptr %5, align 4, !tbaa !13
  store ptr %2, ptr %6, align 8, !tbaa !8
  %7 = load ptr, ptr %6, align 8, !tbaa !8
  %8 = load ptr, ptr %4, align 8, !tbaa !8
  %9 = call ptr @lean_ctor_obj_cptr(ptr noundef %8)
  %10 = load i32, ptr %5, align 4, !tbaa !13
  %11 = zext i32 %10 to i64
  %12 = getelementptr inbounds nuw ptr, ptr %9, i64 %11
  store ptr %7, ptr %12, align 8, !tbaa !8
  ret void
}

; Function Attrs: alwaysinline nounwind uwtable
define internal void @lean_dec(ptr noundef %0) #1 {
  %2 = alloca ptr, align 8
  store ptr %0, ptr %2, align 8, !tbaa !8
  %3 = load ptr, ptr %2, align 8, !tbaa !8
  %4 = call zeroext i1 @lean_is_scalar(ptr noundef %3)
  br i1 %4, label %7, label %5

5:                                                ; preds = %1
  %6 = load ptr, ptr %2, align 8, !tbaa !8
  call void @lean_dec_ref(ptr noundef %6)
  br label %7

7:                                                ; preds = %5, %1
  ret void
}

; Function Attrs: nounwind uwtable
define ptr @l_Lean_Meta_Grind_markNestedProofsImpl_visit___lambda__5(ptr noundef %0, ptr noundef %1, ptr noundef %2, ptr noundef %3, ptr noundef %4, ptr noundef %5, ptr noundef %6, ptr noundef %7) #2 {
  %9 = alloca ptr, align 8
  %10 = alloca ptr, align 8
  %11 = alloca ptr, align 8
  %12 = alloca ptr, align 8
  %13 = alloca ptr, align 8
  %14 = alloca ptr, align 8
  %15 = alloca ptr, align 8
  %16 = alloca ptr, align 8
  %17 = alloca ptr, align 8
  %18 = alloca i8, align 1
  %19 = alloca i8, align 1
  %20 = alloca i8, align 1
  %21 = alloca i8, align 1
  %22 = alloca ptr, align 8
  %23 = alloca i32, align 4
  %24 = alloca ptr, align 8
  %25 = alloca ptr, align 8
  %26 = alloca ptr, align 8
  %27 = alloca ptr, align 8
  %28 = alloca ptr, align 8
  %29 = alloca ptr, align 8
  %30 = alloca ptr, align 8
  %31 = alloca ptr, align 8
  store ptr %0, ptr %10, align 8, !tbaa !8
  store ptr %1, ptr %11, align 8, !tbaa !8
  store ptr %2, ptr %12, align 8, !tbaa !8
  store ptr %3, ptr %13, align 8, !tbaa !8
  store ptr %4, ptr %14, align 8, !tbaa !8
  store ptr %5, ptr %15, align 8, !tbaa !8
  store ptr %6, ptr %16, align 8, !tbaa !8
  store ptr %7, ptr %17, align 8, !tbaa !8
  br label %32

32:                                               ; preds = %8
  call void @llvm.lifetime.start.p0(i64 1, ptr %18) #7
  %33 = load ptr, ptr %10, align 8, !tbaa !8
  %34 = call zeroext i8 @l_Lean_Expr_isApp(ptr noundef %33)
  store i8 %34, ptr %18, align 1, !tbaa !12
  %35 = load i8, ptr %18, align 1, !tbaa !12
  %36 = zext i8 %35 to i32
  %37 = icmp eq i32 %36, 0
  br i1 %37, label %38, label %107

38:                                               ; preds = %32
  call void @llvm.lifetime.start.p0(i64 1, ptr %19) #7
  %39 = load ptr, ptr %10, align 8, !tbaa !8
  %40 = call zeroext i8 @l_Lean_Expr_isForall(ptr noundef %39)
  store i8 %40, ptr %19, align 1, !tbaa !12
  %41 = load i8, ptr %19, align 1, !tbaa !12
  %42 = zext i8 %41 to i32
  %43 = icmp eq i32 %42, 0
  br i1 %43, label %44, label %94

44:                                               ; preds = %38
  call void @llvm.lifetime.start.p0(i64 1, ptr %20) #7
  %45 = load ptr, ptr %10, align 8, !tbaa !8
  %46 = call zeroext i8 @l_Lean_Expr_isProj(ptr noundef %45)
  store i8 %46, ptr %20, align 1, !tbaa !12
  %47 = load i8, ptr %20, align 1, !tbaa !12
  %48 = zext i8 %47 to i32
  %49 = icmp eq i32 %48, 0
  br i1 %49, label %50, label %81

50:                                               ; preds = %44
  call void @llvm.lifetime.start.p0(i64 1, ptr %21) #7
  %51 = load ptr, ptr %10, align 8, !tbaa !8
  %52 = call zeroext i8 @l_Lean_Expr_isMData(ptr noundef %51)
  store i8 %52, ptr %21, align 1, !tbaa !12
  %53 = load i8, ptr %21, align 1, !tbaa !12
  %54 = zext i8 %53 to i32
  %55 = icmp eq i32 %54, 0
  br i1 %55, label %56, label %68

56:                                               ; preds = %50
  call void @llvm.lifetime.start.p0(i64 8, ptr %22) #7
  %57 = load ptr, ptr %16, align 8, !tbaa !8
  call void @lean_dec(ptr noundef %57)
  %58 = load ptr, ptr %15, align 8, !tbaa !8
  call void @lean_dec(ptr noundef %58)
  %59 = load ptr, ptr %14, align 8, !tbaa !8
  call void @lean_dec(ptr noundef %59)
  %60 = load ptr, ptr %13, align 8, !tbaa !8
  call void @lean_dec(ptr noundef %60)
  %61 = load ptr, ptr %12, align 8, !tbaa !8
  call void @lean_dec(ptr noundef %61)
  %62 = call ptr @lean_alloc_ctor(i32 noundef 0, i32 noundef 2, i32 noundef 0)
  store ptr %62, ptr %22, align 8, !tbaa !8
  %63 = load ptr, ptr %22, align 8, !tbaa !8
  %64 = load ptr, ptr %10, align 8, !tbaa !8
  call void @lean_ctor_set(ptr noundef %63, i32 noundef 0, ptr noundef %64)
  %65 = load ptr, ptr %22, align 8, !tbaa !8
  %66 = load ptr, ptr %17, align 8, !tbaa !8
  call void @lean_ctor_set(ptr noundef %65, i32 noundef 1, ptr noundef %66)
  %67 = load ptr, ptr %22, align 8, !tbaa !8
  store ptr %67, ptr %9, align 8
  store i32 1, ptr %23, align 4
  call void @llvm.lifetime.end.p0(i64 8, ptr %22) #7
  br label %80

68:                                               ; preds = %50
  call void @llvm.lifetime.start.p0(i64 8, ptr %24) #7
  call void @llvm.lifetime.start.p0(i64 8, ptr %25) #7
  %69 = call ptr @lean_box(i64 noundef 0)
  store ptr %69, ptr %24, align 8, !tbaa !8
  %70 = load ptr, ptr %10, align 8, !tbaa !8
  %71 = load ptr, ptr %24, align 8, !tbaa !8
  %72 = load ptr, ptr %12, align 8, !tbaa !8
  %73 = load ptr, ptr %13, align 8, !tbaa !8
  %74 = load ptr, ptr %14, align 8, !tbaa !8
  %75 = load ptr, ptr %15, align 8, !tbaa !8
  %76 = load ptr, ptr %16, align 8, !tbaa !8
  %77 = load ptr, ptr %17, align 8, !tbaa !8
  %78 = call ptr @l_Lean_Meta_Grind_markNestedProofsImpl_visit___lambda__4(ptr noundef %70, ptr noundef %71, ptr noundef %72, ptr noundef %73, ptr noundef %74, ptr noundef %75, ptr noundef %76, ptr noundef %77)
  store ptr %78, ptr %25, align 8, !tbaa !8
  %79 = load ptr, ptr %25, align 8, !tbaa !8
  store ptr %79, ptr %9, align 8
  store i32 1, ptr %23, align 4
  call void @llvm.lifetime.end.p0(i64 8, ptr %25) #7
  call void @llvm.lifetime.end.p0(i64 8, ptr %24) #7
  br label %80

80:                                               ; preds = %68, %56
  call void @llvm.lifetime.end.p0(i64 1, ptr %21) #7
  br label %93

81:                                               ; preds = %44
  call void @llvm.lifetime.start.p0(i64 8, ptr %26) #7
  call void @llvm.lifetime.start.p0(i64 8, ptr %27) #7
  %82 = call ptr @lean_box(i64 noundef 0)
  store ptr %82, ptr %26, align 8, !tbaa !8
  %83 = load ptr, ptr %10, align 8, !tbaa !8
  %84 = load ptr, ptr %26, align 8, !tbaa !8
  %85 = load ptr, ptr %12, align 8, !tbaa !8
  %86 = load ptr, ptr %13, align 8, !tbaa !8
  %87 = load ptr, ptr %14, align 8, !tbaa !8
  %88 = load ptr, ptr %15, align 8, !tbaa !8
  %89 = load ptr, ptr %16, align 8, !tbaa !8
  %90 = load ptr, ptr %17, align 8, !tbaa !8
  %91 = call ptr @l_Lean_Meta_Grind_markNestedProofsImpl_visit___lambda__4(ptr noundef %83, ptr noundef %84, ptr noundef %85, ptr noundef %86, ptr noundef %87, ptr noundef %88, ptr noundef %89, ptr noundef %90)
  store ptr %91, ptr %27, align 8, !tbaa !8
  %92 = load ptr, ptr %27, align 8, !tbaa !8
  store ptr %92, ptr %9, align 8
  store i32 1, ptr %23, align 4
  call void @llvm.lifetime.end.p0(i64 8, ptr %27) #7
  call void @llvm.lifetime.end.p0(i64 8, ptr %26) #7
  br label %93

93:                                               ; preds = %81, %80
  call void @llvm.lifetime.end.p0(i64 1, ptr %20) #7
  br label %106

94:                                               ; preds = %38
  call void @llvm.lifetime.start.p0(i64 8, ptr %28) #7
  call void @llvm.lifetime.start.p0(i64 8, ptr %29) #7
  %95 = call ptr @lean_box(i64 noundef 0)
  store ptr %95, ptr %28, align 8, !tbaa !8
  %96 = load ptr, ptr %10, align 8, !tbaa !8
  %97 = load ptr, ptr %28, align 8, !tbaa !8
  %98 = load ptr, ptr %12, align 8, !tbaa !8
  %99 = load ptr, ptr %13, align 8, !tbaa !8
  %100 = load ptr, ptr %14, align 8, !tbaa !8
  %101 = load ptr, ptr %15, align 8, !tbaa !8
  %102 = load ptr, ptr %16, align 8, !tbaa !8
  %103 = load ptr, ptr %17, align 8, !tbaa !8
  %104 = call ptr @l_Lean_Meta_Grind_markNestedProofsImpl_visit___lambda__4(ptr noundef %96, ptr noundef %97, ptr noundef %98, ptr noundef %99, ptr noundef %100, ptr noundef %101, ptr noundef %102, ptr noundef %103)
  store ptr %104, ptr %29, align 8, !tbaa !8
  %105 = load ptr, ptr %29, align 8, !tbaa !8
  store ptr %105, ptr %9, align 8
  store i32 1, ptr %23, align 4
  call void @llvm.lifetime.end.p0(i64 8, ptr %29) #7
  call void @llvm.lifetime.end.p0(i64 8, ptr %28) #7
  br label %106

106:                                              ; preds = %94, %93
  call void @llvm.lifetime.end.p0(i64 1, ptr %19) #7
  br label %119

107:                                              ; preds = %32
  call void @llvm.lifetime.start.p0(i64 8, ptr %30) #7
  call void @llvm.lifetime.start.p0(i64 8, ptr %31) #7
  %108 = call ptr @lean_box(i64 noundef 0)
  store ptr %108, ptr %30, align 8, !tbaa !8
  %109 = load ptr, ptr %10, align 8, !tbaa !8
  %110 = load ptr, ptr %30, align 8, !tbaa !8
  %111 = load ptr, ptr %12, align 8, !tbaa !8
  %112 = load ptr, ptr %13, align 8, !tbaa !8
  %113 = load ptr, ptr %14, align 8, !tbaa !8
  %114 = load ptr, ptr %15, align 8, !tbaa !8
  %115 = load ptr, ptr %16, align 8, !tbaa !8
  %116 = load ptr, ptr %17, align 8, !tbaa !8
  %117 = call ptr @l_Lean_Meta_Grind_markNestedProofsImpl_visit___lambda__4(ptr noundef %109, ptr noundef %110, ptr noundef %111, ptr noundef %112, ptr noundef %113, ptr noundef %114, ptr noundef %115, ptr noundef %116)
  store ptr %117, ptr %31, align 8, !tbaa !8
  %118 = load ptr, ptr %31, align 8, !tbaa !8
  store ptr %118, ptr %9, align 8
  store i32 1, ptr %23, align 4
  call void @llvm.lifetime.end.p0(i64 8, ptr %31) #7
  call void @llvm.lifetime.end.p0(i64 8, ptr %30) #7
  br label %119

119:                                              ; preds = %107, %106
  call void @llvm.lifetime.end.p0(i64 1, ptr %18) #7
  %120 = load ptr, ptr %9, align 8
  ret ptr %120
}