; Function Attrs: nounwind uwtable
define ptr @l_Lean_Meta_Grind_markNestedProofsImpl_visit___lambda__5(ptr noundef %0, ptr readnone captures(none) %1, ptr noundef %2, ptr noundef %3, ptr noundef %4, ptr noundef %5, ptr noundef %6, ptr noundef %7) local_unnamed_addr #0 {
  %9 = tail call zeroext i8 @l_Lean_Expr_isApp(ptr noundef %0) #5
  %10 = icmp eq i8 %9, 0
  br i1 %10, label %11, label %75

11:                                               ; preds = %8
  %12 = tail call zeroext i8 @l_Lean_Expr_isForall(ptr noundef %0) #5
  %13 = icmp eq i8 %12, 0
  br i1 %13, label %14, label %73

14:                                               ; preds = %11
  %15 = tail call zeroext i8 @l_Lean_Expr_isProj(ptr noundef %0) #5
  %16 = icmp eq i8 %15, 0
  br i1 %16, label %17, label %71

17:                                               ; preds = %14
  %18 = tail call zeroext i8 @l_Lean_Expr_isMData(ptr noundef %0) #5
  %19 = icmp eq i8 %18, 0
  br i1 %19, label %20, label %69

20:                                               ; preds = %17
  %21 = ptrtoint ptr %6 to i64
  %22 = and i64 %21, 1
  %.not = icmp eq i64 %22, 0
  br i1 %.not, label %23, label %lean_dec.exit57

23:                                               ; preds = %20
  %24 = load i32, ptr %6, align 4, !tbaa !4
  %25 = icmp sgt i32 %24, 1
  br i1 %25, label %26, label %28, !prof !9

26:                                               ; preds = %23
  %27 = add nsw i32 %24, -1
  store i32 %27, ptr %6, align 4, !tbaa !4
  br label %lean_dec.exit57

28:                                               ; preds = %23
  %.not.i = icmp eq i32 %24, 0
  br i1 %.not.i, label %lean_dec.exit57, label %29

29:                                               ; preds = %28
  tail call void @lean_dec_ref_cold(ptr noundef nonnull %6) #5
  br label %lean_dec.exit57

lean_dec.exit57:                                  ; preds = %29, %28, %26, %20
  %30 = ptrtoint ptr %5 to i64
  %31 = and i64 %30, 1
  %.not66 = icmp eq i64 %31, 0
  br i1 %.not66, label %32, label %lean_dec.exit56

32:                                               ; preds = %lean_dec.exit57
  %33 = load i32, ptr %5, align 4, !tbaa !4
  %34 = icmp sgt i32 %33, 1
  br i1 %34, label %35, label %37, !prof !9

35:                                               ; preds = %32
  %36 = add nsw i32 %33, -1
  store i32 %36, ptr %5, align 4, !tbaa !4
  br label %lean_dec.exit56

37:                                               ; preds = %32
  %.not.i58 = icmp eq i32 %33, 0
  br i1 %.not.i58, label %lean_dec.exit56, label %38

38:                                               ; preds = %37
  tail call void @lean_dec_ref_cold(ptr noundef nonnull %5) #5
  br label %lean_dec.exit56

lean_dec.exit56:                                  ; preds = %38, %37, %35, %lean_dec.exit57
  %39 = ptrtoint ptr %4 to i64
  %40 = and i64 %39, 1
  %.not67 = icmp eq i64 %40, 0
  br i1 %.not67, label %41, label %lean_dec.exit55

41:                                               ; preds = %lean_dec.exit56
  %42 = load i32, ptr %4, align 4, !tbaa !4
  %43 = icmp sgt i32 %42, 1
  br i1 %43, label %44, label %46, !prof !9

44:                                               ; preds = %41
  %45 = add nsw i32 %42, -1
  store i32 %45, ptr %4, align 4, !tbaa !4
  br label %lean_dec.exit55

46:                                               ; preds = %41
  %.not.i60 = icmp eq i32 %42, 0
  br i1 %.not.i60, label %lean_dec.exit55, label %47

47:                                               ; preds = %46
  tail call void @lean_dec_ref_cold(ptr noundef nonnull %4) #5
  br label %lean_dec.exit55

lean_dec.exit55:                                  ; preds = %47, %46, %44, %lean_dec.exit56
  %48 = ptrtoint ptr %3 to i64
  %49 = and i64 %48, 1
  %.not68 = icmp eq i64 %49, 0
  br i1 %.not68, label %50, label %lean_dec.exit54

50:                                               ; preds = %lean_dec.exit55
  %51 = load i32, ptr %3, align 4, !tbaa !4
  %52 = icmp sgt i32 %51, 1
  br i1 %52, label %53, label %55, !prof !9

53:                                               ; preds = %50
  %54 = add nsw i32 %51, -1
  store i32 %54, ptr %3, align 4, !tbaa !4
  br label %lean_dec.exit54

55:                                               ; preds = %50
  %.not.i62 = icmp eq i32 %51, 0
  br i1 %.not.i62, label %lean_dec.exit54, label %56

56:                                               ; preds = %55
  tail call void @lean_dec_ref_cold(ptr noundef nonnull %3) #5
  br label %lean_dec.exit54

lean_dec.exit54:                                  ; preds = %56, %55, %53, %lean_dec.exit55
  %57 = ptrtoint ptr %2 to i64
  %58 = and i64 %57, 1
  %.not69 = icmp eq i64 %58, 0
  br i1 %.not69, label %59, label %lean_dec.exit

59:                                               ; preds = %lean_dec.exit54
  %60 = load i32, ptr %2, align 4, !tbaa !4
  %61 = icmp sgt i32 %60, 1
  br i1 %61, label %62, label %64, !prof !9

62:                                               ; preds = %59
  %63 = add nsw i32 %60, -1
  store i32 %63, ptr %2, align 4, !tbaa !4
  br label %lean_dec.exit

64:                                               ; preds = %59
  %.not.i64 = icmp eq i32 %60, 0
  br i1 %.not.i64, label %lean_dec.exit, label %65

65:                                               ; preds = %64
  tail call void @lean_dec_ref_cold(ptr noundef nonnull %2) #5
  br label %lean_dec.exit

lean_dec.exit:                                    ; preds = %65, %64, %62, %lean_dec.exit54
  %66 = tail call fastcc ptr @lean_alloc_ctor(i32 noundef 0, i32 noundef 2)
  %67 = getelementptr inbounds nuw i8, ptr %66, i64 8
  store ptr %0, ptr %67, align 8, !tbaa !10
  %68 = getelementptr inbounds nuw i8, ptr %66, i64 16
  store ptr %7, ptr %68, align 8, !tbaa !10
  br label %77

69:                                               ; preds = %17
  %70 = tail call ptr @l_Lean_Meta_Grind_markNestedProofsImpl_visit___lambda__4(ptr noundef %0, ptr nonnull poison, ptr noundef %2, ptr noundef %3, ptr noundef %4, ptr noundef %5, ptr noundef %6, ptr noundef %7)
  br label %77

71:                                               ; preds = %14
  %72 = tail call ptr @l_Lean_Meta_Grind_markNestedProofsImpl_visit___lambda__4(ptr noundef %0, ptr nonnull poison, ptr noundef %2, ptr noundef %3, ptr noundef %4, ptr noundef %5, ptr noundef %6, ptr noundef %7)
  br label %77

73:                                               ; preds = %11
  %74 = tail call ptr @l_Lean_Meta_Grind_markNestedProofsImpl_visit___lambda__4(ptr noundef %0, ptr nonnull poison, ptr noundef %2, ptr noundef %3, ptr noundef %4, ptr noundef %5, ptr noundef %6, ptr noundef %7)
  br label %77

75:                                               ; preds = %8
  %76 = tail call ptr @l_Lean_Meta_Grind_markNestedProofsImpl_visit___lambda__4(ptr noundef %0, ptr nonnull poison, ptr noundef %2, ptr noundef %3, ptr noundef %4, ptr noundef %5, ptr noundef %6, ptr noundef %7)
  br label %77

77:                                               ; preds = %73, %lean_dec.exit, %69, %71, %75
  %.3 = phi ptr [ %76, %75 ], [ %74, %73 ], [ %72, %71 ], [ %66, %lean_dec.exit ], [ %70, %69 ]
  ret ptr %.3
}